target datalayout = "e-m:e-p270:32:32-p271:32:32-p272:64:64-i64:64-i128:128-f80:128-n8:16:32:64-S128"
target triple = "x86_64-pc-linux-gnu"

%struct.WarpedMotionParams = type { [8 x i32], i16, i16, i16, i16, i8, i8 }
%struct.macroblockd = type { i32, i32, i32, i8, [3 x %struct.macroblockd_plane], %struct.TileInfo, ptr, i8, i8, i8, i8, ptr, ptr, ptr, ptr, ptr, i32, i32, i32, i32, i32, [2 x ptr], ptr, [3 x ptr], [3 x [32 x i8]], ptr, [32 x i8], ptr, ptr, [32 x i8], [3 x %struct.WienerInfo], [3 x %struct.SgrprojInfo], i8, i8, [29 x [8 x %struct.candidate_mv]], [29 x [8 x i16]], i8, i8, [8 x i8], ptr, i32, [8 x i32], [8 x i32], i32, i32, ptr, ptr, i8, [4 x i8], [4 x i8], [7 x i8], [32768 x i8], %struct.cfl_ctx, [2 x i16], ptr, [2 x ptr] }
%struct.macroblockd_plane = type { i8, i32, i32, %struct.buf_2d, [2 x %struct.buf_2d], ptr, ptr, [8 x [2 x i16]], ptr, i8, i8, [8 x [19 x ptr]], [8 x [19 x ptr]] }
%struct.buf_2d = type { ptr, ptr, i32, i32, i32 }
%struct.TileInfo = type { i32, i32, i32, i32, i32, i32 }
%struct.WienerInfo = type { [8 x i16], [8 x i16] }
%struct.SgrprojInfo = type { i32, [2 x i32] }
%struct.candidate_mv = type { %union.int_mv, %union.int_mv }
%union.int_mv = type { i32 }
%struct.cfl_ctx = type { [1024 x i16], [1024 x i16], [2 x i32], i32, [2 x [32 x i16]], i32, i32, i32, i32, i32, i32 }
%struct.MB_MODE_INFO = type <{ i8, i8, i8, i8, i32, [2 x %union.int_mv], [2 x i8], [2 x i8], %union.int_interpfilters, i8, i8, i8, i8, %struct.WarpedMotionParams, i8, i8, [6 x i8], %struct.INTERINTER_COMPOUND_DATA, [2 x i8], %struct.FILTER_INTRA_MODE_INFO, i8, i8, %struct.PALETTE_MODE_INFO, i8, i8, [16 x i8], i8, [4 x i8], i16, [7 x i8] }>
%union.int_interpfilters = type { i32 }
%struct.INTERINTER_COMPOUND_DATA = type { ptr, i8, i8, i8, i8 }
%struct.FILTER_INTRA_MODE_INFO = type { i8, i8 }
%struct.PALETTE_MODE_INFO = type { [24 x i16], [2 x i8] }

@txsize_sqr_up_map = internal constant [19 x i8] c"\00\01\02\03\04\01\01\02\02\03\03\04\04\02\02\03\03\04\04", align 16
@intra_mode_to_tx_type._intra_mode_to_tx_type = internal constant [13 x i8] c"\00\01\02\00\03\01\02\02\01\03\01\02\03", align 1
@get_uv_mode.uv2y = internal constant [16 x i8] c"\00\01\02\03\04\05\06\07\08\09\0A\0B\0C\00\19\19", align 16
@txsize_sqr_map = internal constant [19 x i8] c"\00\01\02\03\04\00\00\01\01\02\02\03\03\00\00\01\01\02\02", align 16
@av1_ext_tx_set_lookup = internal constant [2 x [2 x i8]] [[2 x i8] c"\03\02", [2 x i8] c"\05\04"], align 1

; Function Attrs: nounwind uwtable
define internal zeroext i8 @get_uv_mode(i8 noundef zeroext %0) #0 {
  %2 = alloca i8, align 1
  store i8 %0, ptr %2, align 1
  %3 = load i8, ptr %2, align 1
  %4 = zext i8 %3 to i64
  %5 = getelementptr inbounds [16 x i8], ptr @get_uv_mode.uv2y, i64 0, i64 %4
  %6 = load i8, ptr %5, align 1
  ret i8 %6
}

; Function Attrs: nounwind uwtable
define internal i32 @is_intrabc_block(ptr noundef %0) #0 {
  %2 = alloca ptr, align 8
  store ptr %0, ptr %2, align 8
  %3 = load ptr, ptr %2, align 8
  %4 = getelementptr inbounds nuw %struct.MB_MODE_INFO, ptr %3, i32 0, i32 28
  %5 = load i16, ptr %4, align 1
  %6 = lshr i16 %5, 7
  %7 = and i16 %6, 1
  %8 = trunc i16 %7 to i8
  %9 = zext i8 %8 to i32
  ret i32 %9
}

; Function Attrs: nounwind uwtable
define internal zeroext i8 @av1_get_ext_tx_set_type(i8 noundef zeroext %0, i32 noundef %1, i32 noundef %2) #0 {
  %4 = alloca i8, align 1
  %5 = alloca i8, align 1
  %6 = alloca i32, align 4
  %7 = alloca i32, align 4
  %8 = alloca i8, align 1
  %9 = alloca i8, align 1
  store i8 %0, ptr %5, align 1
  store i32 %1, ptr %6, align 4
  store i32 %2, ptr %7, align 4
  %10 = load i8, ptr %5, align 1
  %11 = zext i8 %10 to i64
  %12 = getelementptr inbounds [19 x i8], ptr @txsize_sqr_up_map, i64 0, i64 %11
  %13 = load i8, ptr %12, align 1
  store i8 %13, ptr %8, align 1
  %14 = load i8, ptr %8, align 1
  %15 = zext i8 %14 to i32
  %16 = icmp sgt i32 %15, 3
  br i1 %16, label %17, label %18

17:                                               ; preds = %3
  store i8 0, ptr %4, align 1
  br label %50

18:                                               ; preds = %3
  %19 = load i8, ptr %8, align 1
  %20 = zext i8 %19 to i32
  %21 = icmp eq i32 %20, 3
  br i1 %21, label %22, label %27

22:                                               ; preds = %18
  %23 = load i32, ptr %6, align 4
  %24 = icmp ne i32 %23, 0
  %25 = select i1 %24, i32 1, i32 0
  %26 = trunc i32 %25 to i8
  store i8 %26, ptr %4, align 1
  br label %50

27:                                               ; preds = %18
  %28 = load i32, ptr %7, align 4
  %29 = icmp ne i32 %28, 0
  br i1 %29, label %30, label %35

30:                                               ; preds = %27
  %31 = load i32, ptr %6, align 4
  %32 = icmp ne i32 %31, 0
  %33 = select i1 %32, i32 1, i32 2
  %34 = trunc i32 %33 to i8
  store i8 %34, ptr %4, align 1
  br label %50

35:                                               ; preds = %27
  %36 = load i8, ptr %5, align 1
  %37 = zext i8 %36 to i64
  %38 = getelementptr inbounds [19 x i8], ptr @txsize_sqr_map, i64 0, i64 %37
  %39 = load i8, ptr %38, align 1
  store i8 %39, ptr %9, align 1
  %40 = load i32, ptr %6, align 4
  %41 = sext i32 %40 to i64
  %42 = getelementptr inbounds [2 x [2 x i8]], ptr @av1_ext_tx_set_lookup, i64 0, i64 %41
  %43 = load i8, ptr %9, align 1
  %44 = zext i8 %43 to i32
  %45 = icmp eq i32 %44, 2
  %46 = zext i1 %45 to i32
  %47 = sext i32 %46 to i64
  %48 = getelementptr inbounds [2 x i8], ptr %42, i64 0, i64 %47
  %49 = load i8, ptr %48, align 1
  store i8 %49, ptr %4, align 1
  br label %50

50:                                               ; preds = %35, %30, %22, %17
  %51 = load i8, ptr %4, align 1
  ret i8 %51
}

; Function Attrs: nounwind uwtable
define internal zeroext i8 @intra_mode_to_tx_type(ptr noundef %0, i8 noundef zeroext %1) #0 {
  %3 = alloca ptr, align 8
  %4 = alloca i8, align 1
  %5 = alloca i8, align 1
  store ptr %0, ptr %3, align 8
  store i8 %1, ptr %4, align 1
  %6 = load i8, ptr %4, align 1
  %7 = zext i8 %6 to i32
  %8 = icmp eq i32 %7, 0
  br i1 %8, label %9, label %14

9:                                                ; preds = %2
  %10 = load ptr, ptr %3, align 8
  %11 = getelementptr inbounds nuw %struct.MB_MODE_INFO, ptr %10, i32 0, i32 2
  %12 = load i8, ptr %11, align 2
  %13 = zext i8 %12 to i32
  br label %20

14:                                               ; preds = %2
  %15 = load ptr, ptr %3, align 8
  %16 = getelementptr inbounds nuw %struct.MB_MODE_INFO, ptr %15, i32 0, i32 3
  %17 = load i8, ptr %16, align 1
  %18 = call zeroext i8 @get_uv_mode(i8 noundef zeroext %17)
  %19 = zext i8 %18 to i32
  br label %20

20:                                               ; preds = %14, %9
  %21 = phi i32 [ %13, %9 ], [ %19, %14 ]
  %22 = trunc i32 %21 to i8
  store i8 %22, ptr %5, align 1
  %23 = load i8, ptr %5, align 1
  %24 = zext i8 %23 to i64
  %25 = getelementptr inbounds [13 x i8], ptr @intra_mode_to_tx_type._intra_mode_to_tx_type, i64 0, i64 %24
  %26 = load i8, ptr %25, align 1
  ret i8 %26
}

; Function Attrs: nounwind uwtable
define internal i32 @is_inter_block(ptr noundef %0) #0 {
  %2 = alloca ptr, align 8
  store ptr %0, ptr %2, align 8
  %3 = load ptr, ptr %2, align 8
  %4 = call i32 @is_intrabc_block(ptr noundef %3)
  %5 = icmp ne i32 %4, 0
  br i1 %5, label %13, label %6

6:                                                ; preds = %1
  %7 = load ptr, ptr %2, align 8
  %8 = getelementptr inbounds nuw %struct.MB_MODE_INFO, ptr %7, i32 0, i32 6
  %9 = getelementptr inbounds [2 x i8], ptr %8, i64 0, i64 0
  %10 = load i8, ptr %9, align 8
  %11 = sext i8 %10 to i32
  %12 = icmp sgt i32 %11, 0
  br label %13

13:                                               ; preds = %6, %1
  %14 = phi i1 [ true, %1 ], [ %12, %6 ]
  %15 = zext i1 %14 to i32
  ret i32 %15
}

; Function Attrs: nounwind uwtable
define internal zeroext i8 @av1_get_tx_type(ptr noundef %0, i8 noundef zeroext %1, i32 noundef %2, i32 noundef %3, i8 noundef zeroext %4, i32 noundef %5) #0 {
  %7 = alloca i8, align 1
  %8 = alloca ptr, align 8
  %9 = alloca i8, align 1
  %10 = alloca i32, align 4
  %11 = alloca i32, align 4
  %12 = alloca i8, align 1
  %13 = alloca i32, align 4
  %14 = alloca ptr, align 8
  %15 = alloca i8, align 1
  %16 = alloca ptr, align 8
  %17 = alloca i8, align 1
  store ptr %0, ptr %8, align 8
  store i8 %1, ptr %9, align 1
  store i32 %2, ptr %10, align 4
  store i32 %3, ptr %11, align 4
  store i8 %4, ptr %12, align 1
  store i32 %5, ptr %13, align 4
  %18 = load ptr, ptr %8, align 8
  %19 = getelementptr inbounds nuw %struct.macroblockd, ptr %18, i32 0, i32 6
  %20 = load ptr, ptr %19, align 8
  %21 = getelementptr inbounds ptr, ptr %20, i64 0
  %22 = load ptr, ptr %21, align 8
  store ptr %22, ptr %14, align 8
  %23 = load ptr, ptr %8, align 8
  %24 = getelementptr inbounds nuw %struct.macroblockd, ptr %23, i32 0, i32 42
  %25 = load ptr, ptr %14, align 8
  %26 = getelementptr inbounds nuw %struct.MB_MODE_INFO, ptr %25, i32 0, i32 28
  %27 = load i16, ptr %26, align 1
  %28 = and i16 %27, 7
  %29 = trunc i16 %28 to i8
  %30 = zext i8 %29 to i64
  %31 = getelementptr inbounds [8 x i32], ptr %24, i64 0, i64 %30
  %32 = load i32, ptr %31, align 4
  %33 = icmp ne i32 %32, 0
  br i1 %33, label %41, label %34

34:                                               ; preds = %6
  %35 = load i8, ptr %12, align 1
  %36 = zext i8 %35 to i64
  %37 = getelementptr inbounds [19 x i8], ptr @txsize_sqr_up_map, i64 0, i64 %36
  %38 = load i8, ptr %37, align 1
  %39 = zext i8 %38 to i32
  %40 = icmp sgt i32 %39, 3
  br i1 %40, label %41, label %42

41:                                               ; preds = %34, %6
  store i8 0, ptr %7, align 1
  br label %114

42:                                               ; preds = %34
  %43 = load i8, ptr %9, align 1
  %44 = zext i8 %43 to i32
  %45 = icmp eq i32 %44, 0
  br i1 %45, label %46, label %60

46:                                               ; preds = %42
  %47 = load ptr, ptr %8, align 8
  %48 = getelementptr inbounds nuw %struct.macroblockd, ptr %47, i32 0, i32 15
  %49 = load ptr, ptr %48, align 8
  %50 = load i32, ptr %10, align 4
  %51 = load ptr, ptr %8, align 8
  %52 = getelementptr inbounds nuw %struct.macroblockd, ptr %51, i32 0, i32 16
  %53 = load i32, ptr %52, align 16
  %54 = mul nsw i32 %50, %53
  %55 = load i32, ptr %11, align 4
  %56 = add nsw i32 %54, %55
  %57 = sext i32 %56 to i64
  %58 = getelementptr inbounds i8, ptr %49, i64 %57
  %59 = load i8, ptr %58, align 1
  store i8 %59, ptr %15, align 1
  br label %112

60:                                               ; preds = %42
  %61 = load ptr, ptr %14, align 8
  %62 = call i32 @is_inter_block(ptr noundef %61)
  %63 = icmp ne i32 %62, 0
  br i1 %63, label %64, label %93

64:                                               ; preds = %60
  %65 = load ptr, ptr %8, align 8
  %66 = getelementptr inbounds nuw %struct.macroblockd, ptr %65, i32 0, i32 4
  %67 = load i8, ptr %9, align 1
  %68 = zext i8 %67 to i64
  %69 = getelementptr inbounds [3 x %struct.macroblockd_plane], ptr %66, i64 0, i64 %68
  store ptr %69, ptr %16, align 8
  %70 = load ptr, ptr %16, align 8
  %71 = getelementptr inbounds nuw %struct.macroblockd_plane, ptr %70, i32 0, i32 2
  %72 = load i32, ptr %71, align 8
  %73 = load i32, ptr %10, align 4
  %74 = shl i32 %73, %72
  store i32 %74, ptr %10, align 4
  %75 = load ptr, ptr %16, align 8
  %76 = getelementptr inbounds nuw %struct.macroblockd_plane, ptr %75, i32 0, i32 1
  %77 = load i32, ptr %76, align 4
  %78 = load i32, ptr %11, align 4
  %79 = shl i32 %78, %77
  store i32 %79, ptr %11, align 4
  %80 = load ptr, ptr %8, align 8
  %81 = getelementptr inbounds nuw %struct.macroblockd, ptr %80, i32 0, i32 15
  %82 = load ptr, ptr %81, align 8
  %83 = load i32, ptr %10, align 4
  %84 = load ptr, ptr %8, align 8
  %85 = getelementptr inbounds nuw %struct.macroblockd, ptr %84, i32 0, i32 16
  %86 = load i32, ptr %85, align 16
  %87 = mul nsw i32 %83, %86
  %88 = load i32, ptr %11, align 4
  %89 = add nsw i32 %87, %88
  %90 = sext i32 %89 to i64
  %91 = getelementptr inbounds i8, ptr %82, i64 %90
  %92 = load i8, ptr %91, align 1
  store i8 %92, ptr %15, align 1
  br label %96

93:                                               ; preds = %60
  %94 = load ptr, ptr %14, align 8
  %95 = call zeroext i8 @intra_mode_to_tx_type(ptr noundef %94, i8 noundef zeroext 1)
  store i8 %95, ptr %15, align 1
  br label %96

96:                                               ; preds = %93, %64
  %97 = load i8, ptr %12, align 1
  %98 = load ptr, ptr %14, align 8
  %99 = call i32 @is_inter_block(ptr noundef %98)
  %100 = load i32, ptr %13, align 4
  %101 = call zeroext i8 @av1_get_ext_tx_set_type(i8 noundef zeroext %97, i32 noundef %99, i32 noundef %100)
  store i8 %101, ptr %17, align 1
  %102 = load i8, ptr %17, align 1
  %103 = zext i8 %102 to i64
  %104 = getelementptr inbounds [6 x [16 x i32]], ptr @av1_ext_tx_used, i64 0, i64 %103
  %105 = load i8, ptr %15, align 1
  %106 = zext i8 %105 to i64
  %107 = getelementptr inbounds [16 x i32], ptr %104, i64 0, i64 %106
  %108 = load i32, ptr %107, align 4
  %109 = icmp ne i32 %108, 0
  br i1 %109, label %111, label %110

110:                                              ; preds = %96
  store i8 0, ptr %15, align 1
  br label %111

111:                                              ; preds = %110, %96
  br label %112

112:                                              ; preds = %111, %46
  %113 = load i8, ptr %15, align 1
  store i8 %113, ptr %7, align 1
  br label %114

114:                                              ; preds = %112, %41
  %115 = load i8, ptr %7, align 1
  ret i8 %115
}