; Function Attrs: mustprogress nofree norecurse nosync nounwind willreturn memory(read, inaccessiblemem: none) uwtable
define internal fastcc zeroext i8 @av1_get_tx_type(ptr noundef readonly captures(none) %0, i8 noundef zeroext range(i8 0, 2) %1, i32 noundef %2, i32 noundef %3, i8 noundef zeroext %4, i32 noundef range(i32 0, 2) %5) unnamed_addr #9 {
  %7 = getelementptr inbounds nuw i8, ptr %0, i64 7864
  %8 = load ptr, ptr %7, align 8
  %9 = load ptr, ptr %8, align 8
  %10 = getelementptr inbounds nuw i8, ptr %0, i64 10692
  %11 = getelementptr inbounds nuw i8, ptr %9, i64 175
  %12 = load i16, ptr %11, align 1
  %13 = and i16 %12, 7
  %14 = zext nneg i16 %13 to i64
  %15 = getelementptr inbounds nuw [8 x i32], ptr %10, i64 0, i64 %14
  %16 = load i32, ptr %15, align 4
  %.not = icmp eq i32 %16, 0
  br i1 %.not, label %17, label %82

17:                                               ; preds = %6
  %18 = zext nneg i8 %4 to i64
  %19 = shl nuw i64 1, %18
  %20 = and i64 %19, 399376
  %.not28 = icmp eq i64 %20, 0
  br i1 %.not28, label %21, label %82

21:                                               ; preds = %17
  %22 = icmp eq i8 %1, 0
  br i1 %22, label %23, label %33

23:                                               ; preds = %21
  %24 = getelementptr inbounds nuw i8, ptr %0, i64 7912
  %25 = load ptr, ptr %24, align 8
  %26 = getelementptr inbounds nuw i8, ptr %0, i64 7920
  %27 = load i32, ptr %26, align 16
  %28 = mul nsw i32 %27, %2
  %29 = add nsw i32 %28, %3
  %30 = sext i32 %29 to i64
  %31 = getelementptr inbounds i8, ptr %25, i64 %30
  %32 = load i8, ptr %31, align 1
  br label %82

33:                                               ; preds = %21
  %34 = and i16 %12, 128
  %.not.i = icmp eq i16 %34, 0
  br i1 %.not.i, label %is_inter_block.exit, label %is_inter_block.exit.thread

is_inter_block.exit:                              ; preds = %33
  %35 = getelementptr inbounds nuw i8, ptr %9, i64 16
  %36 = load i8, ptr %35, align 8
  %37 = icmp slt i8 %36, 1
  br i1 %37, label %.thread, label %is_inter_block.exit.thread

.thread:                                          ; preds = %is_inter_block.exit
  %38 = getelementptr i8, ptr %9, i64 3
  %.val = load i8, ptr %38, align 1
  %39 = zext i8 %.val to i64
  %40 = getelementptr inbounds nuw [16 x i8], ptr @get_uv_mode.uv2y, i64 0, i64 %39
  %41 = load i8, ptr %40, align 1
  %42 = zext i8 %41 to i64
  %43 = getelementptr inbounds nuw [13 x i8], ptr @intra_mode_to_tx_type._intra_mode_to_tx_type, i64 0, i64 %42
  %44 = load i8, ptr %43, align 1
  br label %is_inter_block.exit33

is_inter_block.exit.thread:                       ; preds = %33, %is_inter_block.exit
  %45 = getelementptr inbounds nuw i8, ptr %0, i64 16
  %46 = zext nneg i8 %1 to i64
  %47 = getelementptr inbounds nuw [3 x %struct.macroblockd_plane], ptr %45, i64 0, i64 %46
  %48 = getelementptr inbounds nuw i8, ptr %47, i64 8
  %49 = load i32, ptr %48, align 8
  %50 = shl i32 %2, %49
  %51 = getelementptr inbounds nuw i8, ptr %47, i64 4
  %52 = load i32, ptr %51, align 4
  %53 = shl i32 %3, %52
  %54 = getelementptr inbounds nuw i8, ptr %0, i64 7912
  %55 = load ptr, ptr %54, align 8
  %56 = getelementptr inbounds nuw i8, ptr %0, i64 7920
  %57 = load i32, ptr %56, align 16
  %58 = mul nsw i32 %57, %50
  %59 = add nsw i32 %58, %53
  %60 = sext i32 %59 to i64
  %61 = getelementptr inbounds i8, ptr %55, i64 %60
  %62 = load i8, ptr %61, align 1
  br i1 %.not.i, label %is_inter_block.exit.thread._crit_edge, label %is_inter_block.exit33

is_inter_block.exit.thread._crit_edge:            ; preds = %is_inter_block.exit.thread
  %.phi.trans.insert = getelementptr inbounds nuw i8, ptr %9, i64 16
  %.pre = load i8, ptr %.phi.trans.insert, align 8
  %63 = icmp sgt i8 %.pre, 0
  %64 = zext i1 %63 to i32
  br label %is_inter_block.exit33

is_inter_block.exit33:                            ; preds = %.thread, %is_inter_block.exit.thread._crit_edge, %is_inter_block.exit.thread
  %.137 = phi i8 [ %62, %is_inter_block.exit.thread ], [ %44, %.thread ], [ %62, %is_inter_block.exit.thread._crit_edge ]
  %65 = phi i32 [ 1, %is_inter_block.exit.thread ], [ 0, %.thread ], [ %64, %is_inter_block.exit.thread._crit_edge ]
  %66 = and i64 %19, 99848
  %.not11.i = icmp eq i64 %66, 0
  br i1 %.not11.i, label %69, label %67

67:                                               ; preds = %is_inter_block.exit33
  %68 = trunc nuw nsw i32 %65 to i8
  br label %av1_get_ext_tx_set_type.exit

69:                                               ; preds = %is_inter_block.exit33
  %.not12.i = icmp eq i32 %5, 0
  br i1 %.not12.i, label %72, label %70

70:                                               ; preds = %69
  %.not13.i = icmp eq i32 %65, 0
  %71 = select i1 %.not13.i, i8 2, i8 1
  br label %av1_get_ext_tx_set_type.exit

72:                                               ; preds = %69
  %73 = zext nneg i32 %65 to i64
  %74 = lshr i64 394756, %18
  %75 = and i64 %74, 1
  %76 = getelementptr inbounds nuw [2 x [2 x i8]], ptr @av1_ext_tx_set_lookup, i64 0, i64 %73, i64 %75
  %77 = load i8, ptr %76, align 1
  br label %av1_get_ext_tx_set_type.exit

av1_get_ext_tx_set_type.exit:                     ; preds = %67, %70, %72
  %.0.i = phi i8 [ %68, %67 ], [ %71, %70 ], [ %77, %72 ]
  %78 = zext i8 %.0.i to i64
  %79 = zext i8 %.137 to i64
  %80 = getelementptr inbounds nuw [6 x [16 x i32]], ptr @av1_ext_tx_used, i64 0, i64 %78, i64 %79
  %81 = load i32, ptr %80, align 4
  %.not30 = icmp eq i32 %81, 0
  %spec.store.select = select i1 %.not30, i8 0, i8 %.137
  br label %82

82:                                               ; preds = %23, %av1_get_ext_tx_set_type.exit, %6, %17
  %.0 = phi i8 [ 0, %17 ], [ 0, %6 ], [ %32, %23 ], [ %spec.store.select, %av1_get_ext_tx_set_type.exit ]
  ret i8 %.0
}